; Function Attrs: mustprogress nounwind uwtable
define dso_local void @_ZNK4llvm13MDAttachments3getEjRNS_15SmallVectorImplIPNS_6MDNodeEEE(ptr noundef nonnull align 8 dereferenceable(32) %0, i32 noundef %1, ptr noundef nonnull align 8 dereferenceable(16) %2) local_unnamed_addr #0 align 2 {
  %4 = load ptr, ptr %0, align 8
  %5 = tail call noundef i64 @_ZNK4llvm15SmallVectorBaseIjE4sizeEv(ptr noundef nonnull align 8 dereferenceable(16) %0) #23
  %6 = getelementptr inbounds %"struct.llvm::MDAttachments::Attachment", ptr %4, i64 %5
  %.not10 = icmp eq i64 %5, 0
  br i1 %.not10, label %._crit_edge, label %.lr.ph

.lr.ph:                                           ; preds = %3
  %7 = getelementptr inbounds i8, ptr %2, i64 16
  br label %8

8:                                                ; preds = %.lr.ph, %24
  %.011 = phi ptr [ %4, %.lr.ph ], [ %25, %24 ]
  %9 = load i32, ptr %.011, align 8
  %10 = icmp eq i32 %9, %1
  br i1 %10, label %11, label %24

11:                                               ; preds = %8
  %12 = getelementptr inbounds nuw i8, ptr %.011, i64 8
  %13 = load ptr, ptr %12, align 8
  %14 = tail call noundef i64 @_ZNK4llvm15SmallVectorBaseIjE4sizeEv(ptr noundef nonnull align 8 dereferenceable(16) %2) #23
  %15 = add i64 %14, 1
  %16 = tail call noundef i64 @_ZNK4llvm15SmallVectorBaseIjE8capacityEv(ptr noundef nonnull align 8 dereferenceable(16) %2) #23
  %.not.i.i.i = icmp ugt i64 %15, %16
  br i1 %.not.i.i.i, label %17, label %_ZN4llvm23SmallVectorTemplateBaseIPNS_6MDNodeELb1EE9push_backES2_.exit

17:                                               ; preds = %11
  tail call void @_ZN4llvm15SmallVectorBaseIjE8grow_podEPvmm(ptr noundef nonnull align 8 dereferenceable(16) %2, ptr noundef nonnull %7, i64 noundef %15, i64 noundef 8) #23
  br label %_ZN4llvm23SmallVectorTemplateBaseIPNS_6MDNodeELb1EE9push_backES2_.exit

_ZN4llvm23SmallVectorTemplateBaseIPNS_6MDNodeELb1EE9push_backES2_.exit: ; preds = %11, %17
  %18 = load ptr, ptr %2, align 8
  %19 = tail call noundef i64 @_ZNK4llvm15SmallVectorBaseIjE4sizeEv(ptr noundef nonnull align 8 dereferenceable(16) %2) #23
  %20 = getelementptr inbounds ptr, ptr %18, i64 %19
  %21 = ptrtoint ptr %13 to i64
  store i64 %21, ptr %20, align 1
  %22 = tail call noundef i64 @_ZNK4llvm15SmallVectorBaseIjE4sizeEv(ptr noundef nonnull align 8 dereferenceable(16) %2) #23
  %23 = add i64 %22, 1
  tail call void @_ZN4llvm15SmallVectorBaseIjE8set_sizeEm(ptr noundef nonnull align 8 dereferenceable(16) %2, i64 noundef %23) #23
  br label %24

24:                                               ; preds = %8, %_ZN4llvm23SmallVectorTemplateBaseIPNS_6MDNodeELb1EE9push_backES2_.exit
  %25 = getelementptr inbounds i8, ptr %.011, i64 16
  %.not = icmp eq ptr %25, %6
  br i1 %.not, label %._crit_edge, label %8

._crit_edge:                                      ; preds = %24, %3
  ret void
}